target datalayout = "e-m:e-p270:32:32-p271:32:32-p272:64:64-i64:64-i128:128-f80:128-n8:16:32:64-S128"
target triple = "x86_64-unknown-linux-gnu"

%"class.node::inspector::InspectorSessionDelegate" = type { ptr }
%"class.node::inspector::(anonymous namespace)::JSBindingsConnection<node::inspector::(anonymous namespace)::MainThreadConnection>::JSBindingsSessionDelegate" = type { %"class.node::inspector::InspectorSessionDelegate", ptr, %"class.node::BaseObjectPtrImpl.400" }
%"class.node::BaseObjectPtrImpl.400" = type { %union.anon.401 }
%union.anon.401 = type { ptr }

; Function Attrs: mustprogress nounwind uwtable
define internal noundef ptr @_ZNK4node17BaseObjectPtrImplINS_9inspector12_GLOBAL__N_120JSBindingsConnectionINS2_20MainThreadConnectionEEELb0EE15get_base_objectEv(ptr noundef nonnull align 8 dereferenceable(8) %this) #4 align 2 {
entry:
  %this.addr = alloca ptr, align 8
  store ptr %this, ptr %this.addr, align 8
  %this1 = load ptr, ptr %this.addr, align 8
  %data_ = getelementptr inbounds %"class.node::BaseObjectPtrImpl.400", ptr %this1, i32 0, i32 0
  %0 = load ptr, ptr %data_, align 8
  ret ptr %0
}

; Function Attrs: mustprogress nounwind uwtable
define internal noundef ptr @_ZNK4node17BaseObjectPtrImplINS_9inspector12_GLOBAL__N_120JSBindingsConnectionINS2_20MainThreadConnectionEEELb0EE3getEv(ptr noundef nonnull align 8 dereferenceable(8) %this) #4 align 2 {
entry:
  %this.addr = alloca ptr, align 8
  store ptr %this, ptr %this.addr, align 8
  %this1 = load ptr, ptr %this.addr, align 8
  %call = call noundef ptr @_ZNK4node17BaseObjectPtrImplINS_9inspector12_GLOBAL__N_120JSBindingsConnectionINS2_20MainThreadConnectionEEELb0EE15get_base_objectEv(ptr noundef nonnull align 8 dereferenceable(8) %this1)
  ret ptr %call
}

; Function Attrs: mustprogress nounwind uwtable
define linkonce_odr dso_local void @_ZN4node9inspector24InspectorSessionDelegateD2Ev(ptr noundef nonnull align 8 dereferenceable(8) %this) unnamed_addr #4 comdat align 2 {
entry:
  %this.addr = alloca ptr, align 8
  store ptr %this, ptr %this.addr, align 8
  ret void
}

; Function Attrs: mustprogress nounwind uwtable
define internal void @_ZN4node17BaseObjectPtrImplINS_9inspector12_GLOBAL__N_120JSBindingsConnectionINS2_20MainThreadConnectionEEELb0EED2Ev(ptr noundef nonnull align 8 dereferenceable(8) %this) unnamed_addr #4 align 2 {
entry:
  %this.addr = alloca ptr, align 8
  store ptr %this, ptr %this.addr, align 8
  %this1 = load ptr, ptr %this.addr, align 8
  %call = call noundef ptr @_ZNK4node17BaseObjectPtrImplINS_9inspector12_GLOBAL__N_120JSBindingsConnectionINS2_20MainThreadConnectionEEELb0EE3getEv(ptr noundef nonnull align 8 dereferenceable(8) %this1)
  %cmp = icmp ne ptr %call, null
  br i1 %cmp, label %if.then, label %if.end

if.then:                                          ; preds = %entry
  %call2 = call noundef ptr @_ZNK4node17BaseObjectPtrImplINS_9inspector12_GLOBAL__N_120JSBindingsConnectionINS2_20MainThreadConnectionEEELb0EE3getEv(ptr noundef nonnull align 8 dereferenceable(8) %this1)
  call void @_ZN4node10BaseObject17decrease_refcountEv(ptr noundef nonnull align 8 dereferenceable(32) %call2)
  br label %if.end

if.end:                                           ; preds = %if.then, %entry
  ret void
}

; Function Attrs: mustprogress nounwind uwtable
define internal void @_ZN4node9inspector12_GLOBAL__N_120JSBindingsConnectionINS1_20MainThreadConnectionEE25JSBindingsSessionDelegateD2Ev(ptr noundef nonnull align 8 dereferenceable(24) %this) unnamed_addr #4 align 2 {
entry:
  %this.addr = alloca ptr, align 8
  store ptr %this, ptr %this.addr, align 8
  %this1 = load ptr, ptr %this.addr, align 8
  store ptr getelementptr inbounds ({ [5 x ptr] }, ptr @_ZTVN4node9inspector12_GLOBAL__N_120JSBindingsConnectionINS1_20MainThreadConnectionEE25JSBindingsSessionDelegateE, i32 0, i32 0, i32 2), ptr %this1, align 8
  %connection_ = getelementptr inbounds %"class.node::inspector::(anonymous namespace)::JSBindingsConnection<node::inspector::(anonymous namespace)::MainThreadConnection>::JSBindingsSessionDelegate", ptr %this1, i32 0, i32 2
  call void @_ZN4node17BaseObjectPtrImplINS_9inspector12_GLOBAL__N_120JSBindingsConnectionINS2_20MainThreadConnectionEEELb0EED2Ev(ptr noundef nonnull align 8 dereferenceable(8) %connection_) #3
  call void @_ZN4node9inspector24InspectorSessionDelegateD2Ev(ptr noundef nonnull align 8 dereferenceable(8) %this1) #3
  ret void
}